target datalayout = "e-m:e-p270:32:32-p271:32:32-p272:64:64-i64:64-i128:128-f80:128-n8:16:32:64-S128"
target triple = "x86_64-pc-linux-gnu"

%struct.ParallelApplyWorkerShared = type { i8, i32, i32, i16, i32, %struct.pg_atomic_uint32, i64, i32, %struct.FileSet }
%struct.pg_atomic_uint32 = type { i32 }
%struct.FileSet = type { i32, i32, i32, [8 x i32] }

@.str.2 = private unnamed_addr constant [22 x i8] c"applyparallelworker.c\00", align 1
@__func__.pa_set_xact_state = private unnamed_addr constant [18 x i8] c"pa_set_xact_state\00", align 1

; Function Attrs: inlinehint nounwind uwtable
define internal i32 @tas(ptr noundef %0) #5 {
  %2 = alloca ptr, align 8
  %3 = alloca i8, align 1
  store ptr %0, ptr %2, align 8
  call void @llvm.lifetime.start.p0(i64 1, ptr %3) #9
  store i8 1, ptr %3, align 1
  %4 = load i8, ptr %3, align 1
  %5 = load ptr, ptr %2, align 8
  %6 = call i8 asm sideeffect "\09lock\09\09\09\0A\09xchgb\09$0,$1\09\0A", "=q,=*m,0,*m,~{memory},~{cc},~{dirflag},~{fpsr},~{flags}"(ptr elementtype(i8) %5, i8 %4, ptr elementtype(i8) %5) #9, !srcloc !10
  store i8 %6, ptr %3, align 1
  %7 = load i8, ptr %3, align 1
  %8 = zext i8 %7 to i32
  call void @llvm.lifetime.end.p0(i64 1, ptr %3) #9
  ret i32 %8
}

; Function Attrs: nounwind uwtable
define dso_local void @pa_set_xact_state(ptr noundef %0, i32 noundef %1) #0 {
  %3 = alloca ptr, align 8
  %4 = alloca i32, align 4
  store ptr %0, ptr %3, align 8
  store i32 %1, ptr %4, align 4
  %5 = load ptr, ptr %3, align 8
  %6 = getelementptr inbounds nuw %struct.ParallelApplyWorkerShared, ptr %5, i32 0, i32 0
  %7 = call i32 @tas(ptr noundef %6)
  %8 = icmp ne i32 %7, 0
  br i1 %8, label %9, label %13

9:                                                ; preds = %2
  %10 = load ptr, ptr %3, align 8
  %11 = getelementptr inbounds nuw %struct.ParallelApplyWorkerShared, ptr %10, i32 0, i32 0
  %12 = call i32 @s_lock(ptr noundef %11, ptr noundef @.str.2, i32 noundef 1310, ptr noundef @__func__.pa_set_xact_state)
  br label %14

13:                                               ; preds = %2
  br label %14

14:                                               ; preds = %13, %9
  %15 = load i32, ptr %4, align 4
  %16 = load ptr, ptr %3, align 8
  %17 = getelementptr inbounds nuw %struct.ParallelApplyWorkerShared, ptr %16, i32 0, i32 2
  store i32 %15, ptr %17, align 8
  br label %18

18:                                               ; preds = %14
  call void asm sideeffect "", "~{memory},~{dirflag},~{fpsr},~{flags}"() #9, !srcloc !15
  %19 = load ptr, ptr %3, align 8
  %20 = getelementptr inbounds nuw %struct.ParallelApplyWorkerShared, ptr %19, i32 0, i32 0
  store i8 0, ptr %20, align 8
  br label %21

21:                                               ; preds = %18
  ret void
}